Certificate:
    Data:
        Version: 3 (0x2)
        Serial Number: 1 (0x1)
        Signature Algorithm: md5WithRSAEncryption
        Issuer: C=BE, ST=Liege, L=Waremme, O=HEPL, OU=Dpt informatique, CN=HOOGHEN Vincent/emailAddress=v.hooghen@live.fr
        Validity
            Not Before: Jan 25 11:12:29 2018 GMT
            Not After : Jan 25 11:12:29 2019 GMT
        Subject: C=BE, ST=Liege, O=HEPL, OU=Dpt informatique, CN=Vincent Hooghen
        Subject Public Key Info:
            Public Key Algorithm: dsaEncryption
            DSA Public Key:
                pub: 
                    00:b3:0f:01:34:b5:95:0d:c6:57:7a:0a:4d:37:4b:
                    11:2b:6d:6d:a0:d0:65:cb:79:e3:e7:cc:bb:f6:7b:
                    d3:e1:59:52:00:a3:f0:15:7c:35:06:5b:c7:5a:b2:
                    79:97:5e:d1:62:d1:58:42:fd:f7:e0:68:5c:68:ec:
                    27:76:5e:0f:d8:8c:33:89:32:a3:c4:a7:94:3d:c3:
                    3f:93:f9:73:49:49:38:81:0f:91:8f:d2:bb:52:27:
                    03:cb:0b:fe:9d:f0:d8:a9:a9:3e:5c:58:91:1c:f0:
                    be:41:79:cf:63:6a:2a:20:e9:90:cf:89:51:af:68:
                    3d:5c:9e:d3:b1:02:68:b0:7e
                P:   
                    00:fd:7f:53:81:1d:75:12:29:52:df:4a:9c:2e:ec:
                    e4:e7:f6:11:b7:52:3c:ef:44:00:c3:1e:3f:80:b6:
                    51:26:69:45:5d:40:22:51:fb:59:3d:8d:58:fa:bf:
                    c5:f5:ba:30:f6:cb:9b:55:6c:d7:81:3b:80:1d:34:
                    6f:f2:66:60:b7:6b:99:50:a5:a4:9f:9f:e8:04:7b:
                    10:22:c2:4f:bb:a9:d7:fe:b7:c6:1b:f8:3b:57:e7:
                    c6:a8:a6:15:0f:04:fb:83:f6:d3:c5:1e:c3:02:35:
                    54:13:5a:16:91:32:f6:75:f3:ae:2b:61:d7:2a:ef:
                    f2:22:03:19:9d:d1:48:01:c7
                Q:   
                    00:97:60:50:8f:15:23:0b:cc:b2:92:b9:82:a2:eb:
                    84:0b:f0:58:1c:f5
                G:   
                    00:f7:e1:a0:85:d6:9b:3d:de:cb:bc:ab:5c:36:b8:
                    57:b9:79:94:af:bb:fa:3a:ea:82:f9:57:4c:0b:3d:
                    07:82:67:51:59:57:8e:ba:d4:59:4f:e6:71:07:10:
                    81:80:b4:49:16:71:23:e8:4c:28:16:13:b7:cf:09:
                    32:8c:c8:a6:e1:3c:16:7a:8b:54:7c:8d:28:e0:a3:
                    ae:1e:2b:b3:a6:75:91:6e:a3:7f:0b:fa:21:35:62:
                    f1:fb:62:7a:01:24:3b:cc:a4:f1:be:a8:51:90:89:
                    a8:83:df:e1:5a:e5:9f:06:92:8b:66:5e:80:7b:55:
                    25:64:01:4c:3b:fe:cf:49:2a
        X509v3 extensions:
            X509v3 Basic Constraints: 
                CA:FALSE
            Netscape Comment: 
                OpenSSL Generated Certificate
            X509v3 Subject Key Identifier: 
                5A:8B:31:15:9E:27:87:9E:EF:6F:C0:E1:0A:F6:2B:4D:A9:E2:14:C4
            X509v3 Authority Key Identifier: 
                keyid:82:FE:FC:F3:FE:A8:9D:F5:81:C6:2E:A7:18:06:06:17:A1:DF:16:CF
                DirName:/C=BE/ST=Liege/L=Waremme/O=HEPL/OU=Dpt informatique/CN=HOOGHEN Vincent/emailAddress=v.hooghen@live.fr
                serial:00

    Signature Algorithm: md5WithRSAEncryption
        8c:6b:c6:f4:82:dd:8e:68:7e:5f:67:e4:6c:8c:8e:ba:55:92:
        49:82:4d:38:e0:1d:be:68:a3:a1:e9:8e:fd:ea:fe:74:8e:50:
        cd:2c:52:d2:c4:5b:8c:f0:7a:7c:9a:47:ca:8b:2b:e3:b8:69:
        66:98:62:17:19:63:ce:6f:48:a4:e2:2d:02:ef:23:27:15:69:
        93:1a:b0:71:c3:48:45:64:35:47:6e:1d:28:40:c4:f4:c2:fe:
        4e:b8:0e:89:da:81:a4:7c:c7:55:4f:38:f7:eb:03:51:6a:3d:
        a3:b7:84:79:6f:8b:f9:71:07:2f:b5:2d:ef:9b:e9:44:a0:95:
        1e:c5
-----BEGIN CERTIFICATE-----
MIIEqjCCBBOgAwIBAgIBATANBgkqhkiG9w0BAQQFADCBlTELMAkGA1UEBhMCQkUx
DjAMBgNVBAgTBUxpZWdlMRAwDgYDVQQHEwdXYXJlbW1lMQ0wCwYDVQQKEwRIRVBM
MRkwFwYDVQQLExBEcHQgaW5mb3JtYXRpcXVlMRgwFgYDVQQDEw9IT09HSEVOIFZp
bmNlbnQxIDAeBgkqhkiG9w0BCQEWEXYuaG9vZ2hlbkBsaXZlLmZyMB4XDTE4MDEy
NTExMTIyOVoXDTE5MDEyNTExMTIyOVowYTELMAkGA1UEBhMCQkUxDjAMBgNVBAgT
BUxpZWdlMQ0wCwYDVQQKEwRIRVBMMRkwFwYDVQQLExBEcHQgaW5mb3JtYXRpcXVl
MRgwFgYDVQQDEw9WaW5jZW50IEhvb2doZW4wggG4MIIBLAYHKoZIzjgEATCCAR8C
gYEA/X9TgR11EilS30qcLuzk5/YRt1I870QAwx4/gLZRJmlFXUAiUftZPY1Y+r/F
9bow9subVWzXgTuAHTRv8mZgt2uZUKWkn5/oBHsQIsJPu6nX/rfGG/g7V+fGqKYV
DwT7g/bTxR7DAjVUE1oWkTL2dfOuK2HXKu/yIgMZndFIAccCFQCXYFCPFSMLzLKS
uYKi64QL8Fgc9QKBgQD34aCF1ps93su8q1w2uFe5eZSvu/o66oL5V0wLPQeCZ1FZ
V4661FlP5nEHEIGAtEkWcSPoTCgWE7fPCTKMyKbhPBZ6i1R8jSjgo64eK7OmdZFu
o38L+iE1YvH7YnoBJDvMpPG+qFGQiaiD3+Fa5Z8GkotmXoB7VSVkAUw7/s9JKgOB
hQACgYEAsw8BNLWVDcZXegpNN0sRK21toNBly3nj58y79nvT4VlSAKPwFXw1BlvH
WrJ5l17RYtFYQv334GhcaOwndl4P2IwziTKjxKeUPcM/k/lzSUk4gQ+Rj9K7UicD
ywv+nfDYqak+XFiRHPC+QXnPY2oqIOmQz4lRr2g9XJ7TsQJosH6jggEhMIIBHTAJ
BgNVHRMEAjAAMCwGCWCGSAGG+EIBDQQfFh1PcGVuU1NMIEdlbmVyYXRlZCBDZXJ0
aWZpY2F0ZTAdBgNVHQ4EFgQUWosxFZ4nh57vb8DhCvYrTaniFMQwgcIGA1UdIwSB
ujCBt4AUgv788/6onfWBxi6nGAYGF6HfFs+hgZukgZgwgZUxCzAJBgNVBAYTAkJF
MQ4wDAYDVQQIEwVMaWVnZTEQMA4GA1UEBxMHV2FyZW1tZTENMAsGA1UEChMESEVQ
TDEZMBcGA1UECxMQRHB0IGluZm9ybWF0aXF1ZTEYMBYGA1UEAxMPSE9PR0hFTiBW
aW5jZW50MSAwHgYJKoZIhvcNAQkBFhF2Lmhvb2doZW5AbGl2ZS5mcoIBADANBgkq
hkiG9w0BAQQFAAOBgQCMa8b0gt2OaH5fZ+RsjI66VZJJgk044B2+aKOh6Y796v50
jlDNLFLSxFuM8Hp8mkfKiyvjuGlmmGIXGWPOb0ik4i0C7yMnFWmTGrBxw0hFZDVH
bh0oQMT0wv5OuA6J2oGkfMdVTzj36wNRaj2jt4R5b4v5cQcvtS3vm+lEoJUexQ==
-----END CERTIFICATE-----
