Certificate:
    Data:
        Version: 3 (0x2)
        Serial Number: 2 (0x2)
        Signature Algorithm: md5WithRSAEncryption
        Issuer: C=BE, ST=Liege, L=Waremme, O=HEPL, OU=Dpt informatique, CN=HOOGHEN Vincent/emailAddress=v.hooghen@live.fr
        Validity
            Not Before: Jan 25 11:37:07 2018 GMT
            Not After : Jan 25 11:37:07 2019 GMT
        Subject: C=BE, ST=Liege, O=HEPL, OU=Dpt informatique, CN=Vincent Hooghen
        Subject Public Key Info:
            Public Key Algorithm: dsaEncryption
            DSA Public Key:
                pub: 
                    00:87:a6:ed:c6:20:68:6c:27:c6:b6:c0:dd:ec:ee:
                    b3:43:2e:ca:85:59:0c:e0:d8:ea:bb:b1:66:b8:0c:
                    97:37:b9:55:38:ec:b7:86:5f:ad:e0:c3:6f:ee:e7:
                    7b:51:40:65:22:45:f9:ad:22:8b:5b:c7:55:f2:f9:
                    37:19:81:0a:3a:03:f2:59:3d:b3:09:de:c8:93:95:
                    43:47:be:e7:89:df:2b:00:7c:ca:c6:f5:bf:93:3f:
                    1f:97:28:a5:4b:78:15:fe:28:64:02:18:1a:20:ca:
                    a3:73:49:d9:bb:84:8c:78:ca:97:d8:b1:ee:70:3a:
                    3d:ad:c9:db:ff:96:53:0d:72
                P:   
                    00:fd:7f:53:81:1d:75:12:29:52:df:4a:9c:2e:ec:
                    e4:e7:f6:11:b7:52:3c:ef:44:00:c3:1e:3f:80:b6:
                    51:26:69:45:5d:40:22:51:fb:59:3d:8d:58:fa:bf:
                    c5:f5:ba:30:f6:cb:9b:55:6c:d7:81:3b:80:1d:34:
                    6f:f2:66:60:b7:6b:99:50:a5:a4:9f:9f:e8:04:7b:
                    10:22:c2:4f:bb:a9:d7:fe:b7:c6:1b:f8:3b:57:e7:
                    c6:a8:a6:15:0f:04:fb:83:f6:d3:c5:1e:c3:02:35:
                    54:13:5a:16:91:32:f6:75:f3:ae:2b:61:d7:2a:ef:
                    f2:22:03:19:9d:d1:48:01:c7
                Q:   
                    00:97:60:50:8f:15:23:0b:cc:b2:92:b9:82:a2:eb:
                    84:0b:f0:58:1c:f5
                G:   
                    00:f7:e1:a0:85:d6:9b:3d:de:cb:bc:ab:5c:36:b8:
                    57:b9:79:94:af:bb:fa:3a:ea:82:f9:57:4c:0b:3d:
                    07:82:67:51:59:57:8e:ba:d4:59:4f:e6:71:07:10:
                    81:80:b4:49:16:71:23:e8:4c:28:16:13:b7:cf:09:
                    32:8c:c8:a6:e1:3c:16:7a:8b:54:7c:8d:28:e0:a3:
                    ae:1e:2b:b3:a6:75:91:6e:a3:7f:0b:fa:21:35:62:
                    f1:fb:62:7a:01:24:3b:cc:a4:f1:be:a8:51:90:89:
                    a8:83:df:e1:5a:e5:9f:06:92:8b:66:5e:80:7b:55:
                    25:64:01:4c:3b:fe:cf:49:2a
        X509v3 extensions:
            X509v3 Basic Constraints: 
                CA:FALSE
            Netscape Comment: 
                OpenSSL Generated Certificate
            X509v3 Subject Key Identifier: 
                C2:A7:F3:7C:4A:8F:F9:98:E7:F6:43:45:76:8F:00:28:16:B8:EB:E0
            X509v3 Authority Key Identifier: 
                keyid:82:FE:FC:F3:FE:A8:9D:F5:81:C6:2E:A7:18:06:06:17:A1:DF:16:CF
                DirName:/C=BE/ST=Liege/L=Waremme/O=HEPL/OU=Dpt informatique/CN=HOOGHEN Vincent/emailAddress=v.hooghen@live.fr
                serial:00

    Signature Algorithm: md5WithRSAEncryption
        75:c5:47:f6:e3:d9:7a:b1:d6:f5:0f:2e:ce:07:f1:55:21:aa:
        d5:99:1d:8d:35:26:b0:02:75:f6:96:4a:dc:ce:ae:4e:c3:ea:
        2f:03:6c:b3:28:c3:df:0a:e7:5a:2e:fa:a7:88:bb:75:63:05:
        68:8f:c2:c4:5b:f5:90:af:97:a4:a1:f7:65:d8:76:f8:da:6b:
        97:f9:55:a3:f0:44:d2:7c:9c:01:6d:87:11:b8:be:23:59:61:
        4b:44:5f:c8:4e:71:8a:5e:ca:91:af:72:19:d7:b6:98:87:2a:
        d4:34:9e:1b:be:2a:8f:43:68:71:a6:db:ca:35:d2:c8:b3:a1:
        92:79
-----BEGIN CERTIFICATE-----
MIIEqjCCBBOgAwIBAgIBAjANBgkqhkiG9w0BAQQFADCBlTELMAkGA1UEBhMCQkUx
DjAMBgNVBAgTBUxpZWdlMRAwDgYDVQQHEwdXYXJlbW1lMQ0wCwYDVQQKEwRIRVBM
MRkwFwYDVQQLExBEcHQgaW5mb3JtYXRpcXVlMRgwFgYDVQQDEw9IT09HSEVOIFZp
bmNlbnQxIDAeBgkqhkiG9w0BCQEWEXYuaG9vZ2hlbkBsaXZlLmZyMB4XDTE4MDEy
NTExMzcwN1oXDTE5MDEyNTExMzcwN1owYTELMAkGA1UEBhMCQkUxDjAMBgNVBAgT
BUxpZWdlMQ0wCwYDVQQKEwRIRVBMMRkwFwYDVQQLExBEcHQgaW5mb3JtYXRpcXVl
MRgwFgYDVQQDEw9WaW5jZW50IEhvb2doZW4wggG4MIIBLAYHKoZIzjgEATCCAR8C
gYEA/X9TgR11EilS30qcLuzk5/YRt1I870QAwx4/gLZRJmlFXUAiUftZPY1Y+r/F
9bow9subVWzXgTuAHTRv8mZgt2uZUKWkn5/oBHsQIsJPu6nX/rfGG/g7V+fGqKYV
DwT7g/bTxR7DAjVUE1oWkTL2dfOuK2HXKu/yIgMZndFIAccCFQCXYFCPFSMLzLKS
uYKi64QL8Fgc9QKBgQD34aCF1ps93su8q1w2uFe5eZSvu/o66oL5V0wLPQeCZ1FZ
V4661FlP5nEHEIGAtEkWcSPoTCgWE7fPCTKMyKbhPBZ6i1R8jSjgo64eK7OmdZFu
o38L+iE1YvH7YnoBJDvMpPG+qFGQiaiD3+Fa5Z8GkotmXoB7VSVkAUw7/s9JKgOB
hQACgYEAh6btxiBobCfGtsDd7O6zQy7KhVkM4Njqu7FmuAyXN7lVOOy3hl+t4MNv
7ud7UUBlIkX5rSKLW8dV8vk3GYEKOgPyWT2zCd7Ik5VDR77nid8rAHzKxvW/kz8f
lyilS3gV/ihkAhgaIMqjc0nZu4SMeMqX2LHucDo9rcnb/5ZTDXKjggEhMIIBHTAJ
BgNVHRMEAjAAMCwGCWCGSAGG+EIBDQQfFh1PcGVuU1NMIEdlbmVyYXRlZCBDZXJ0
aWZpY2F0ZTAdBgNVHQ4EFgQUwqfzfEqP+Zjn9kNFdo8AKBa46+AwgcIGA1UdIwSB
ujCBt4AUgv788/6onfWBxi6nGAYGF6HfFs+hgZukgZgwgZUxCzAJBgNVBAYTAkJF
MQ4wDAYDVQQIEwVMaWVnZTEQMA4GA1UEBxMHV2FyZW1tZTENMAsGA1UEChMESEVQ
TDEZMBcGA1UECxMQRHB0IGluZm9ybWF0aXF1ZTEYMBYGA1UEAxMPSE9PR0hFTiBW
aW5jZW50MSAwHgYJKoZIhvcNAQkBFhF2Lmhvb2doZW5AbGl2ZS5mcoIBADANBgkq
hkiG9w0BAQQFAAOBgQB1xUf249l6sdb1Dy7OB/FVIarVmR2NNSawAnX2lkrczq5O
w+ovA2yzKMPfCudaLvqniLt1YwVoj8LEW/WQr5ekofdl2Hb42muX+VWj8ETSfJwB
bYcRuL4jWWFLRF/ITnGKXsqRr3IZ17aYhyrUNJ4bviqPQ2hxptvKNdLIs6GSeQ==
-----END CERTIFICATE-----
